target datalayout = "e-m:e-p270:32:32-p271:32:32-p272:64:64-i64:64-i128:128-f80:128-n8:16:32:64-S128"
target triple = "x86_64-pc-linux-gnu"

%struct.truncate_arg = type { ptr, i64 }

; Function Attrs: nounwind sspstrong uwtable
define internal ptr @nogvl_truncate(ptr noundef %0) #0 {
  %2 = alloca ptr, align 8
  %3 = alloca ptr, align 8
  store ptr %0, ptr %2, align 8, !tbaa !83
  call void @llvm.lifetime.start.p0(i64 8, ptr %3) #24
  %4 = load ptr, ptr %2, align 8, !tbaa !83
  store ptr %4, ptr %3, align 8, !tbaa !245
  %5 = load ptr, ptr %3, align 8, !tbaa !245
  %6 = getelementptr inbounds nuw %struct.truncate_arg, ptr %5, i32 0, i32 0
  %7 = load ptr, ptr %6, align 8, !tbaa !138
  %8 = load ptr, ptr %3, align 8, !tbaa !245
  %9 = getelementptr inbounds nuw %struct.truncate_arg, ptr %8, i32 0, i32 1
  %10 = load i64, ptr %9, align 8, !tbaa !135
  %11 = call i32 @truncate(ptr noundef %7, i64 noundef %10) #24
  %12 = sext i32 %11 to i64
  %13 = inttoptr i64 %12 to ptr
  call void @llvm.lifetime.end.p0(i64 8, ptr %3) #24
  ret ptr %13
}